target datalayout = "e-m:e-p270:32:32-p271:32:32-p272:64:64-i64:64-i128:128-f80:128-n8:16:32:64-S128"
target triple = "x86_64-pc-linux-gnu"

%class.ThreadShadow = type <{ ptr, ptr, ptr, i32, [4 x i8] }>

@_ZN15java_lang_Class19_array_klass_offsetE = hidden global i32 0, align 4
@_ZN9vmClasses8_klassesE = external global [0 x ptr], align 8
@_ZN8Universe17_typeArrayKlassesE = external global [12 x ptr], align 16

; Function Attrs: mustprogress nounwind uwtable
define linkonce_odr hidden noundef ptr @_ZN19InstanceMirrorKlass4castEPK5Klass(ptr noundef %0) #1 comdat align 2 {
  %2 = alloca ptr, align 8
  store ptr %0, ptr %2, align 8
  %3 = load ptr, ptr %2, align 8
  ret ptr %3
}

; Function Attrs: mustprogress nounwind uwtable
define linkonce_odr hidden noundef ptr @_ZN9vmClasses11check_klassEP13InstanceKlass(ptr noundef %0) #1 comdat align 2 {
  %2 = alloca ptr, align 8
  store ptr %0, ptr %2, align 8
  %3 = load ptr, ptr %2, align 8
  ret ptr %3
}

; Function Attrs: mustprogress nounwind uwtable
define hidden void @_ZN15java_lang_Class23release_set_array_klassEP7oopDescP5Klass(ptr noundef %0, ptr noundef %1) #1 align 2 {
  %3 = alloca ptr, align 8
  %4 = alloca ptr, align 8
  store ptr %0, ptr %3, align 8
  store ptr %1, ptr %4, align 8
  %5 = load ptr, ptr %3, align 8
  %6 = load i32, ptr @_ZN15java_lang_Class19_array_klass_offsetE, align 4
  %7 = load ptr, ptr %4, align 8
  call void @_ZN7oopDesc26release_metadata_field_putEiP8Metadata(ptr noundef nonnull align 8 dereferenceable(16) %5, i32 noundef %6, ptr noundef %7)
  ret void
}

; Function Attrs: mustprogress nounwind uwtable
define linkonce_odr hidden noundef ptr @_ZN8Universe14typeArrayKlassE9BasicType(i8 noundef zeroext %0) #1 comdat align 2 {
  %2 = alloca i8, align 1
  store i8 %0, ptr %2, align 1
  %3 = load i8, ptr %2, align 1
  %4 = zext i8 %3 to i64
  %5 = getelementptr inbounds [12 x ptr], ptr @_ZN8Universe17_typeArrayKlassesE, i64 0, i64 %4
  %6 = load ptr, ptr %5, align 8
  ret ptr %6
}

; Function Attrs: mustprogress nounwind uwtable
define linkonce_odr hidden noundef zeroext i1 @_ZNK12ThreadShadow21has_pending_exceptionEv(ptr noundef nonnull align 8 dereferenceable(28) %0) #1 comdat align 2 {
  %2 = alloca ptr, align 8
  store ptr %0, ptr %2, align 8
  %3 = load ptr, ptr %2, align 8
  %4 = getelementptr inbounds %class.ThreadShadow, ptr %3, i32 0, i32 1
  %5 = load ptr, ptr %4, align 8
  %6 = icmp ne ptr %5, null
  ret i1 %6
}

; Function Attrs: mustprogress nounwind uwtable
define linkonce_odr hidden noundef ptr @_ZN19InstanceMirrorKlass4castEP5Klass(ptr noundef %0) #1 comdat align 2 {
  %2 = alloca ptr, align 8
  store ptr %0, ptr %2, align 8
  %3 = load ptr, ptr %2, align 8
  %4 = call noundef ptr @_ZN19InstanceMirrorKlass4castEPK5Klass(ptr noundef %3)
  ret ptr %4
}

; Function Attrs: mustprogress nounwind uwtable
define linkonce_odr hidden noundef ptr @_ZN9vmClasses11Class_klassEv() #1 comdat align 2 {
  %1 = load ptr, ptr getelementptr inbounds ([0 x ptr], ptr @_ZN9vmClasses8_klassesE, i64 0, i64 2), align 8
  %2 = call noundef ptr @_ZN9vmClasses11check_klassEP13InstanceKlass(ptr noundef %1)
  ret ptr %2
}

; Function Attrs: mustprogress nounwind uwtable
define hidden noundef ptr @_ZN15java_lang_Class24create_basic_type_mirrorEPKc9BasicTypeP10JavaThread(ptr noundef %0, i8 noundef zeroext %1, ptr noundef %2) #1 align 2 {
  %4 = alloca ptr, align 8
  %5 = alloca ptr, align 8
  %6 = alloca i8, align 1
  %7 = alloca ptr, align 8
  %8 = alloca ptr, align 8
  %9 = alloca ptr, align 8
  store ptr %0, ptr %5, align 8
  store i8 %1, ptr %6, align 1
  store ptr %2, ptr %7, align 8
  %10 = call noundef ptr @_ZN9vmClasses11Class_klassEv()
  %11 = call noundef ptr @_ZN19InstanceMirrorKlass4castEP5Klass(ptr noundef %10)
  %12 = load ptr, ptr %7, align 8
  %13 = call noundef ptr @_ZN19InstanceMirrorKlass17allocate_instanceEP5KlassP10JavaThread(ptr noundef nonnull align 8 dereferenceable(464) %11, ptr noundef null, ptr noundef %12)
  store ptr %13, ptr %8, align 8
  %14 = load ptr, ptr %7, align 8
  %15 = call noundef zeroext i1 @_ZNK12ThreadShadow21has_pending_exceptionEv(ptr noundef nonnull align 8 dereferenceable(28) %14)
  br i1 %15, label %16, label %17

16:                                               ; preds = %3
  store ptr null, ptr %4, align 8
  br label %28

17:                                               ; preds = %3
  %18 = load i8, ptr %6, align 1
  %19 = zext i8 %18 to i32
  %20 = icmp ne i32 %19, 14
  br i1 %20, label %21, label %26

21:                                               ; preds = %17
  %22 = load i8, ptr %6, align 1
  %23 = call noundef ptr @_ZN8Universe14typeArrayKlassE9BasicType(i8 noundef zeroext %22)
  store ptr %23, ptr %9, align 8
  %24 = load ptr, ptr %8, align 8
  %25 = load ptr, ptr %9, align 8
  call void @_ZN15java_lang_Class23release_set_array_klassEP7oopDescP5Klass(ptr noundef %24, ptr noundef %25)
  br label %26

26:                                               ; preds = %21, %17
  %27 = load ptr, ptr %8, align 8
  store ptr %27, ptr %4, align 8
  br label %28

28:                                               ; preds = %26, %16
  %29 = load ptr, ptr %4, align 8
  ret ptr %29
}