; Function Attrs: mustprogress nounwind uwtable
define hidden noundef ptr @_ZN15java_lang_Class24create_basic_type_mirrorEPKc9BasicTypeP10JavaThread(ptr nocapture noundef readnone %0, i8 noundef zeroext %1, ptr noundef %2) local_unnamed_addr #0 align 2 {
  %4 = load ptr, ptr getelementptr inbounds (i8, ptr @_ZN9vmClasses8_klassesE, i64 16), align 8
  %5 = tail call noundef ptr @_ZN19InstanceMirrorKlass17allocate_instanceEP5KlassP10JavaThread(ptr noundef nonnull align 8 dereferenceable(464) %4, ptr noundef null, ptr noundef %2) #19
  %6 = getelementptr inbounds i8, ptr %2, i64 8
  %7 = load ptr, ptr %6, align 8
  %.not7 = icmp eq ptr %7, null
  br i1 %.not7, label %8, label %14

8:                                                ; preds = %3
  %.not = icmp eq i8 %1, 14
  br i1 %.not, label %14, label %9

9:                                                ; preds = %8
  %10 = zext i8 %1 to i64
  %11 = getelementptr inbounds [12 x ptr], ptr @_ZN8Universe17_typeArrayKlassesE, i64 0, i64 %10
  %12 = load ptr, ptr %11, align 8
  %13 = load i32, ptr @_ZN15java_lang_Class19_array_klass_offsetE, align 4
  tail call void @_ZN7oopDesc26release_metadata_field_putEiP8Metadata(ptr noundef nonnull align 8 dereferenceable(16) %5, i32 noundef %13, ptr noundef %12) #19
  br label %14

14:                                               ; preds = %8, %9, %3
  %.0 = phi ptr [ null, %3 ], [ %5, %9 ], [ %5, %8 ]
  ret ptr %.0
}